target datalayout = "e-m:e-p270:32:32-p271:32:32-p272:64:64-i64:64-i128:128-f80:128-n8:16:32:64-S128"
target triple = "x86_64-pc-linux-gnu"

%"class.i18n::phonenumbers::AreaCodeMap" = type { ptr, %"class.boost::scoped_ptr" }
%"class.boost::scoped_ptr" = type { ptr }

; Function Attrs: mustprogress nounwind uwtable
define linkonce_odr dso_local noundef ptr @_ZNK5boost10scoped_ptrIKN4i18n12phonenumbers17DefaultMapStorageEEptEv(ptr noundef nonnull align 8 dereferenceable(8) %0) #5 comdat align 2 {
  %2 = alloca ptr, align 8
  store ptr %0, ptr %2, align 8
  %3 = load ptr, ptr %2, align 8
  %4 = getelementptr inbounds %"class.boost::scoped_ptr", ptr %3, i32 0, i32 0
  %5 = load ptr, ptr %4, align 8
  ret ptr %5
}

; Function Attrs: mustprogress uwtable
define dso_local noundef i32 @_ZNK4i18n12phonenumbers11AreaCodeMap12BinarySearchEiil(ptr noundef nonnull align 8 dereferenceable(16) %0, i32 noundef %1, i32 noundef %2, i64 noundef %3) #4 align 2 {
  %5 = alloca i32, align 4
  %6 = alloca ptr, align 8
  %7 = alloca i32, align 4
  %8 = alloca i32, align 4
  %9 = alloca i64, align 8
  %10 = alloca i32, align 4
  %11 = alloca i32, align 4
  store ptr %0, ptr %6, align 8
  store i32 %1, ptr %7, align 4
  store i32 %2, ptr %8, align 4
  store i64 %3, ptr %9, align 8
  %12 = load ptr, ptr %6, align 8
  store i32 0, ptr %10, align 4
  br label %13

13:                                               ; preds = %45, %4
  %14 = load i32, ptr %7, align 4
  %15 = load i32, ptr %8, align 4
  %16 = icmp sle i32 %14, %15
  br i1 %16, label %17, label %46

17:                                               ; preds = %13
  %18 = load i32, ptr %7, align 4
  %19 = load i32, ptr %8, align 4
  %20 = add nsw i32 %18, %19
  %21 = sdiv i32 %20, 2
  store i32 %21, ptr %10, align 4
  %22 = getelementptr inbounds %"class.i18n::phonenumbers::AreaCodeMap", ptr %12, i32 0, i32 1
  %23 = call noundef ptr @_ZNK5boost10scoped_ptrIKN4i18n12phonenumbers17DefaultMapStorageEEptEv(ptr noundef nonnull align 8 dereferenceable(8) %22) #3
  %24 = load i32, ptr %10, align 4
  %25 = call noundef i32 @_ZNK4i18n12phonenumbers17DefaultMapStorage9GetPrefixEi(ptr noundef nonnull align 8 dereferenceable(44) %23, i32 noundef %24)
  store i32 %25, ptr %11, align 4
  %26 = load i32, ptr %11, align 4
  %27 = sext i32 %26 to i64
  %28 = load i64, ptr %9, align 8
  %29 = icmp eq i64 %27, %28
  br i1 %29, label %30, label %32

30:                                               ; preds = %17
  %31 = load i32, ptr %10, align 4
  store i32 %31, ptr %5, align 4
  br label %48

32:                                               ; preds = %17
  %33 = load i32, ptr %11, align 4
  %34 = sext i32 %33 to i64
  %35 = load i64, ptr %9, align 8
  %36 = icmp sgt i64 %34, %35
  br i1 %36, label %37, label %41

37:                                               ; preds = %32
  %38 = load i32, ptr %10, align 4
  %39 = add nsw i32 %38, -1
  store i32 %39, ptr %10, align 4
  %40 = load i32, ptr %10, align 4
  store i32 %40, ptr %8, align 4
  br label %44

41:                                               ; preds = %32
  %42 = load i32, ptr %10, align 4
  %43 = add nsw i32 %42, 1
  store i32 %43, ptr %7, align 4
  br label %44

44:                                               ; preds = %41, %37
  br label %45

45:                                               ; preds = %44
  br label %13, !llvm.loop !7

46:                                               ; preds = %13
  %47 = load i32, ptr %10, align 4
  store i32 %47, ptr %5, align 4
  br label %48

48:                                               ; preds = %46, %30
  %49 = load i32, ptr %5, align 4
  ret i32 %49
}