; Function Attrs: mustprogress uwtable
define dso_local noundef range(i32 -1073741825, 1073741824) i32 @_ZNK4i18n12phonenumbers11AreaCodeMap12BinarySearchEiil(ptr noundef nonnull readonly align 8 captures(none) dereferenceable(16) %0, i32 noundef %1, i32 noundef %2, i64 noundef %3) local_unnamed_addr #3 align 2 {
  %.not22 = icmp sgt i32 %1, %2
  br i1 %.not22, label %._crit_edge25, label %.lr.ph

.lr.ph:                                           ; preds = %4
  %5 = getelementptr inbounds nuw i8, ptr %0, i64 8
  br label %6

6:                                                ; preds = %.lr.ph, %13
  %.01624 = phi i32 [ %1, %.lr.ph ], [ %.117, %13 ]
  %.01823 = phi i32 [ %2, %.lr.ph ], [ %.119, %13 ]
  %7 = add nsw i32 %.01624, %.01823
  %8 = sdiv i32 %7, 2
  %9 = load ptr, ptr %5, align 8
  %10 = tail call noundef i32 @_ZNK4i18n12phonenumbers17DefaultMapStorage9GetPrefixEi(ptr noundef nonnull align 8 dereferenceable(44) %9, i32 noundef %8)
  %11 = sext i32 %10 to i64
  %12 = icmp eq i64 %3, %11
  br i1 %12, label %._crit_edge25, label %13

13:                                               ; preds = %6
  %14 = icmp slt i64 %3, %11
  %15 = add nsw i32 %8, -1
  %16 = add nsw i32 %8, 1
  %.119 = select i1 %14, i32 %15, i32 %.01823
  %.117 = select i1 %14, i32 %.01624, i32 %16
  %.not = icmp sgt i32 %.117, %.119
  br i1 %.not, label %._crit_edge, label %6, !llvm.loop !5

._crit_edge:                                      ; preds = %13
  %.1.le = select i1 %14, i32 %15, i32 %8
  br label %._crit_edge25

._crit_edge25:                                    ; preds = %6, %._crit_edge, %4
  %.0 = phi i32 [ %.1.le, %._crit_edge ], [ 0, %4 ], [ %8, %6 ]
  ret i32 %.0
}